target datalayout = "e-m:e-p270:32:32-p271:32:32-p272:64:64-i64:64-i128:128-f80:128-n8:16:32:64-S128"
target triple = "x86_64-pc-linux-gnu"

%"class.std::vector" = type { %"struct.std::_Vector_base" }
%"struct.std::_Vector_base" = type { %"struct.std::_Vector_base<std::__cxx11::basic_string<char>, std::allocator<std::__cxx11::basic_string<char>>>::_Vector_impl" }
%"struct.std::_Vector_base<std::__cxx11::basic_string<char>, std::allocator<std::__cxx11::basic_string<char>>>::_Vector_impl" = type { %"struct.std::_Vector_base<std::__cxx11::basic_string<char>, std::allocator<std::__cxx11::basic_string<char>>>::_Vector_impl_data" }
%"struct.std::_Vector_base<std::__cxx11::basic_string<char>, std::allocator<std::__cxx11::basic_string<char>>>::_Vector_impl_data" = type { ptr, ptr, ptr }
%"class.std::__cxx11::basic_string" = type { %"struct.std::__cxx11::basic_string<char>::_Alloc_hider", i64, %union.anon }
%"struct.std::__cxx11::basic_string<char>::_Alloc_hider" = type { ptr }
%union.anon = type { i64, [8 x i8] }
%"struct.casadi::Variable" = type { i64, %"class.std::__cxx11::basic_string", %"class.std::vector.3", i64, i32, %"class.std::__cxx11::basic_string", i32, i32, i32, i32, %"class.std::__cxx11::basic_string", %"class.std::__cxx11::basic_string", i32, double, double, double, %"class.std::vector.8", i64, i64, i64, %"class.std::vector.8", %"class.std::__cxx11::basic_string", i8, %"class.std::vector.3", %"class.std::vector.13", %"class.casadi::MX", %"class.casadi::MX", %"class.casadi::MX" }
%"class.std::vector.8" = type { %"struct.std::_Vector_base.9" }
%"struct.std::_Vector_base.9" = type { %"struct.std::_Vector_base<double, std::allocator<double>>::_Vector_impl" }
%"struct.std::_Vector_base<double, std::allocator<double>>::_Vector_impl" = type { %"struct.std::_Vector_base<double, std::allocator<double>>::_Vector_impl_data" }
%"struct.std::_Vector_base<double, std::allocator<double>>::_Vector_impl_data" = type { ptr, ptr, ptr }
%"class.std::vector.3" = type { %"struct.std::_Vector_base.4" }
%"struct.std::_Vector_base.4" = type { %"struct.std::_Vector_base<long long, std::allocator<long long>>::_Vector_impl" }
%"struct.std::_Vector_base<long long, std::allocator<long long>>::_Vector_impl" = type { %"struct.std::_Vector_base<long long, std::allocator<long long>>::_Vector_impl_data" }
%"struct.std::_Vector_base<long long, std::allocator<long long>>::_Vector_impl_data" = type { ptr, ptr, ptr }
%"class.std::vector.13" = type { %"struct.std::_Vector_base.14" }
%"struct.std::_Vector_base.14" = type { %"struct.std::_Vector_base<casadi::DependenciesKind, std::allocator<casadi::DependenciesKind>>::_Vector_impl" }
%"struct.std::_Vector_base<casadi::DependenciesKind, std::allocator<casadi::DependenciesKind>>::_Vector_impl" = type { %"struct.std::_Vector_base<casadi::DependenciesKind, std::allocator<casadi::DependenciesKind>>::_Vector_impl_data" }
%"struct.std::_Vector_base<casadi::DependenciesKind, std::allocator<casadi::DependenciesKind>>::_Vector_impl_data" = type { ptr, ptr, ptr }
%"class.casadi::MX" = type { %"class.casadi::SharedObject" }
%"class.casadi::SharedObject" = type { %"class.casadi::GenericShared" }
%"class.casadi::GenericShared" = type { ptr }
%"struct.std::_Rb_tree_header" = type { %"struct.std::_Rb_tree_node_base", i64 }
%"struct.std::_Rb_tree_node_base" = type { i32, ptr, ptr, ptr }
%"class.casadi::DaeBuilderInternal" = type <{ %"class.casadi::SharedObjectInternal", i8, [7 x i8], double, i8, [7 x i8], %"class.std::__cxx11::basic_string", %"class.std::__cxx11::basic_string", %"class.std::__cxx11::basic_string", %"class.std::__cxx11::basic_string", %"class.std::__cxx11::basic_string", %"class.std::__cxx11::basic_string", %"class.std::__cxx11::basic_string", %"class.std::__cxx11::basic_string", %"class.std::__cxx11::basic_string", %"class.std::__cxx11::basic_string", i64, double, double, double, double, %"class.std::__cxx11::basic_string", i8, i8, i8, [5 x i8], %"class.std::vector", %"class.std::__cxx11::basic_string", %"class.std::__cxx11::basic_string", i8, [7 x i8], i64, %"class.std::vector.28", %"class.std::vector.33", %"class.std::vector.33", %"class.std::vector.33", %"class.std::unordered_map", %"class.std::unordered_map.43", %"class.std::vector.63", %"class.std::vector.33", %"class.std::vector.68", %"class.std::vector.68", %"class.std::vector.68", %"class.std::map.73", %"class.std::vector.78", [2 x [2 x [2 x %"class.casadi::Function"]]], i8, [7 x i8] }>
%"class.casadi::SharedObjectInternal" = type { %"class.casadi::GenericSharedInternal", i64 }
%"class.casadi::GenericSharedInternal" = type { ptr, ptr }
%"class.std::vector.28" = type { %"struct.std::_Vector_base.29" }
%"struct.std::_Vector_base.29" = type { %"struct.std::_Vector_base<casadi::Variable *, std::allocator<casadi::Variable *>>::_Vector_impl" }
%"struct.std::_Vector_base<casadi::Variable *, std::allocator<casadi::Variable *>>::_Vector_impl" = type { %"struct.std::_Vector_base<casadi::Variable *, std::allocator<casadi::Variable *>>::_Vector_impl_data" }
%"struct.std::_Vector_base<casadi::Variable *, std::allocator<casadi::Variable *>>::_Vector_impl_data" = type { ptr, ptr, ptr }
%"class.std::unordered_map" = type { %"class.std::_Hashtable" }
%"class.std::_Hashtable" = type { ptr, i64, %"struct.std::__detail::_Hash_node_base", i64, %"struct.std::__detail::_Prime_rehash_policy", ptr }
%"struct.std::__detail::_Hash_node_base" = type { ptr }
%"struct.std::__detail::_Prime_rehash_policy" = type { float, i64 }
%"class.std::unordered_map.43" = type { %"class.std::_Hashtable.44" }
%"class.std::_Hashtable.44" = type { ptr, i64, %"struct.std::__detail::_Hash_node_base", i64, %"struct.std::__detail::_Prime_rehash_policy", ptr }
%"class.std::vector.63" = type { %"struct.std::_Vector_base.64" }
%"struct.std::_Vector_base.64" = type { %"struct.std::_Vector_base<std::vector<unsigned long>, std::allocator<std::vector<unsigned long>>>::_Vector_impl" }
%"struct.std::_Vector_base<std::vector<unsigned long>, std::allocator<std::vector<unsigned long>>>::_Vector_impl" = type { %"struct.std::_Vector_base<std::vector<unsigned long>, std::allocator<std::vector<unsigned long>>>::_Vector_impl_data" }
%"struct.std::_Vector_base<std::vector<unsigned long>, std::allocator<std::vector<unsigned long>>>::_Vector_impl_data" = type { ptr, ptr, ptr }
%"class.std::vector.33" = type { %"struct.std::_Vector_base.34" }
%"struct.std::_Vector_base.34" = type { %"struct.std::_Vector_base<unsigned long, std::allocator<unsigned long>>::_Vector_impl" }
%"struct.std::_Vector_base<unsigned long, std::allocator<unsigned long>>::_Vector_impl" = type { %"struct.std::_Vector_base<unsigned long, std::allocator<unsigned long>>::_Vector_impl_data" }
%"struct.std::_Vector_base<unsigned long, std::allocator<unsigned long>>::_Vector_impl_data" = type { ptr, ptr, ptr }
%"class.std::vector.68" = type { %"struct.std::_Vector_base.69" }
%"struct.std::_Vector_base.69" = type { %"struct.std::_Vector_base<casadi::MX, std::allocator<casadi::MX>>::_Vector_impl" }
%"struct.std::_Vector_base<casadi::MX, std::allocator<casadi::MX>>::_Vector_impl" = type { %"struct.std::_Vector_base<casadi::MX, std::allocator<casadi::MX>>::_Vector_impl_data" }
%"struct.std::_Vector_base<casadi::MX, std::allocator<casadi::MX>>::_Vector_impl_data" = type { ptr, ptr, ptr }
%"class.std::map.73" = type { %"class.std::_Rb_tree.74" }
%"class.std::_Rb_tree.74" = type { %"struct.std::_Rb_tree<std::__cxx11::basic_string<char>, std::pair<const std::__cxx11::basic_string<char>, std::vector<std::__cxx11::basic_string<char>>>, std::_Select1st<std::pair<const std::__cxx11::basic_string<char>, std::vector<std::__cxx11::basic_string<char>>>>, std::less<std::__cxx11::basic_string<char>>>::_Rb_tree_impl" }
%"struct.std::_Rb_tree<std::__cxx11::basic_string<char>, std::pair<const std::__cxx11::basic_string<char>, std::vector<std::__cxx11::basic_string<char>>>, std::_Select1st<std::pair<const std::__cxx11::basic_string<char>, std::vector<std::__cxx11::basic_string<char>>>>, std::less<std::__cxx11::basic_string<char>>>::_Rb_tree_impl" = type { [8 x i8], %"struct.std::_Rb_tree_header" }
%"class.std::vector.78" = type { %"struct.std::_Vector_base.79" }
%"struct.std::_Vector_base.79" = type { %"struct.std::_Vector_base<casadi::Function, std::allocator<casadi::Function>>::_Vector_impl" }
%"struct.std::_Vector_base<casadi::Function, std::allocator<casadi::Function>>::_Vector_impl" = type { %"struct.std::_Vector_base<casadi::Function, std::allocator<casadi::Function>>::_Vector_impl_data" }
%"struct.std::_Vector_base<casadi::Function, std::allocator<casadi::Function>>::_Vector_impl_data" = type { ptr, ptr, ptr }
%"class.casadi::Function" = type { %"class.casadi::SharedObject" }
%"class.__gnu_cxx::__normal_iterator.162" = type { ptr }
%"class.__gnu_cxx::__normal_iterator.96" = type { ptr }

@.str.690 = private unnamed_addr constant [74 x i8] c"vector::_M_range_check: __n (which is %zu) >= this->size() (which is %zu)\00", align 1

; Function Attrs: mustprogress nounwind uwtable
define linkonce_odr hidden noundef i64 @_ZNKSt6vectorIPN6casadi8VariableESaIS2_EE4sizeEv(ptr noundef nonnull align 8 dereferenceable(24) %0) #5 comdat align 2 {
  %2 = alloca ptr, align 8
  store ptr %0, ptr %2, align 8, !tbaa !135
  %3 = load ptr, ptr %2, align 8
  %4 = getelementptr inbounds nuw %"struct.std::_Vector_base.29", ptr %3, i32 0, i32 0
  %5 = getelementptr inbounds nuw %"struct.std::_Vector_base<casadi::Variable *, std::allocator<casadi::Variable *>>::_Vector_impl_data", ptr %4, i32 0, i32 1
  %6 = load ptr, ptr %5, align 8, !tbaa !173
  %7 = getelementptr inbounds nuw %"struct.std::_Vector_base.29", ptr %3, i32 0, i32 0
  %8 = getelementptr inbounds nuw %"struct.std::_Vector_base<casadi::Variable *, std::allocator<casadi::Variable *>>::_Vector_impl_data", ptr %7, i32 0, i32 0
  %9 = load ptr, ptr %8, align 8, !tbaa !171
  %10 = ptrtoint ptr %6 to i64
  %11 = ptrtoint ptr %9 to i64
  %12 = sub i64 %10, %11
  %13 = sdiv exact i64 %12, 8
  ret i64 %13
}

; Function Attrs: mustprogress nounwind uwtable
define linkonce_odr hidden noundef nonnull align 8 dereferenceable(8) ptr @_ZNKSt6vectorIPN6casadi8VariableESaIS2_EEixEm(ptr noundef nonnull align 8 dereferenceable(24) %0, i64 noundef %1) #5 comdat align 2 {
  %3 = alloca ptr, align 8
  %4 = alloca i64, align 8
  store ptr %0, ptr %3, align 8, !tbaa !135
  store i64 %1, ptr %4, align 8, !tbaa !31
  %5 = load ptr, ptr %3, align 8
  %6 = getelementptr inbounds nuw %"struct.std::_Vector_base.29", ptr %5, i32 0, i32 0
  %7 = getelementptr inbounds nuw %"struct.std::_Vector_base<casadi::Variable *, std::allocator<casadi::Variable *>>::_Vector_impl_data", ptr %6, i32 0, i32 0
  %8 = load ptr, ptr %7, align 8, !tbaa !171
  %9 = load i64, ptr %4, align 8, !tbaa !31
  %10 = getelementptr inbounds nuw ptr, ptr %8, i64 %9
  ret ptr %10
}

; Function Attrs: mustprogress uwtable
define linkonce_odr hidden void @_ZNKSt6vectorIPN6casadi8VariableESaIS2_EE14_M_range_checkEm(ptr noundef nonnull align 8 dereferenceable(24) %0, i64 noundef %1) #6 comdat align 2 {
  %3 = alloca ptr, align 8
  %4 = alloca i64, align 8
  store ptr %0, ptr %3, align 8, !tbaa !135
  store i64 %1, ptr %4, align 8, !tbaa !31
  %5 = load ptr, ptr %3, align 8
  %6 = load i64, ptr %4, align 8, !tbaa !31
  %7 = call noundef i64 @_ZNKSt6vectorIPN6casadi8VariableESaIS2_EE4sizeEv(ptr noundef nonnull align 8 dereferenceable(24) %5) #3
  %8 = icmp uge i64 %6, %7
  br i1 %8, label %9, label %12

9:                                                ; preds = %2
  %10 = load i64, ptr %4, align 8, !tbaa !31
  %11 = call noundef i64 @_ZNKSt6vectorIPN6casadi8VariableESaIS2_EE4sizeEv(ptr noundef nonnull align 8 dereferenceable(24) %5) #3
  call void (ptr, ...) @_ZSt24__throw_out_of_range_fmtPKcz(ptr noundef @.str.690, i64 noundef %10, i64 noundef %11) #22
  unreachable

12:                                               ; preds = %2
  ret void
}

; Function Attrs: mustprogress nounwind uwtable
define linkonce_odr hidden noundef nonnull align 8 dereferenceable(8) ptr @_ZNK9__gnu_cxx17__normal_iteratorIPmSt6vectorImSaImEEE4baseEv(ptr noundef nonnull align 8 dereferenceable(8) %0) #5 comdat align 2 {
  %2 = alloca ptr, align 8
  store ptr %0, ptr %2, align 8, !tbaa !332
  %3 = load ptr, ptr %2, align 8
  %4 = getelementptr inbounds nuw %"class.__gnu_cxx::__normal_iterator.162", ptr %3, i32 0, i32 0
  ret ptr %4
}

; Function Attrs: mustprogress nounwind uwtable
define linkonce_odr hidden void @_ZN9__gnu_cxx17__normal_iteratorIPmSt6vectorImSaImEEEC2ERKS1_(ptr noundef nonnull align 8 dereferenceable(8) %0, ptr noundef nonnull align 8 dereferenceable(8) %1) unnamed_addr #5 comdat align 2 {
  %3 = alloca ptr, align 8
  %4 = alloca ptr, align 8
  store ptr %0, ptr %3, align 8, !tbaa !332
  store ptr %1, ptr %4, align 8, !tbaa !1047
  %5 = load ptr, ptr %3, align 8
  %6 = getelementptr inbounds nuw %"class.__gnu_cxx::__normal_iterator.162", ptr %5, i32 0, i32 0
  %7 = load ptr, ptr %4, align 8, !tbaa !1047
  %8 = load ptr, ptr %7, align 8, !tbaa !279
  store ptr %8, ptr %6, align 8, !tbaa !355
  ret void
}

; Function Attrs: mustprogress uwtable
define linkonce_odr hidden noundef nonnull align 8 dereferenceable(8) ptr @_ZNKSt6vectorIPN6casadi8VariableESaIS2_EE2atEm(ptr noundef nonnull align 8 dereferenceable(24) %0, i64 noundef %1) #6 comdat align 2 {
  %3 = alloca ptr, align 8
  %4 = alloca i64, align 8
  store ptr %0, ptr %3, align 8, !tbaa !135
  store i64 %1, ptr %4, align 8, !tbaa !31
  %5 = load ptr, ptr %3, align 8
  %6 = load i64, ptr %4, align 8, !tbaa !31
  call void @_ZNKSt6vectorIPN6casadi8VariableESaIS2_EE14_M_range_checkEm(ptr noundef nonnull align 8 dereferenceable(24) %5, i64 noundef %6)
  %7 = load i64, ptr %4, align 8, !tbaa !31
  %8 = call noundef nonnull align 8 dereferenceable(8) ptr @_ZNKSt6vectorIPN6casadi8VariableESaIS2_EEixEm(ptr noundef nonnull align 8 dereferenceable(24) %5, i64 noundef %7) #3
  ret ptr %8
}

; Function Attrs: mustprogress nounwind uwtable
define linkonce_odr hidden void @_ZN9__gnu_cxx17__normal_iteratorIPKmSt6vectorImSaImEEEC2IPmvEERKNS0_IT_S5_EE(ptr noundef nonnull align 8 dereferenceable(8) %0, ptr noundef nonnull align 8 dereferenceable(8) %1) unnamed_addr #5 comdat align 2 {
  %3 = alloca ptr, align 8
  %4 = alloca ptr, align 8
  store ptr %0, ptr %3, align 8, !tbaa !277
  store ptr %1, ptr %4, align 8, !tbaa !332
  %5 = load ptr, ptr %3, align 8
  %6 = getelementptr inbounds nuw %"class.__gnu_cxx::__normal_iterator.96", ptr %5, i32 0, i32 0
  %7 = load ptr, ptr %4, align 8, !tbaa !332
  %8 = call noundef nonnull align 8 dereferenceable(8) ptr @_ZNK9__gnu_cxx17__normal_iteratorIPmSt6vectorImSaImEEE4baseEv(ptr noundef nonnull align 8 dereferenceable(8) %7) #3
  %9 = load ptr, ptr %8, align 8, !tbaa !279
  store ptr %9, ptr %6, align 8, !tbaa !280
  ret void
}

; Function Attrs: mustprogress nounwind uwtable
define linkonce_odr hidden ptr @_ZNK9__gnu_cxx17__normal_iteratorIPmSt6vectorImSaImEEEplEl(ptr noundef nonnull align 8 dereferenceable(8) %0, i64 noundef %1) #5 comdat align 2 {
  %3 = alloca %"class.__gnu_cxx::__normal_iterator.162", align 8
  %4 = alloca ptr, align 8
  %5 = alloca i64, align 8
  %6 = alloca ptr, align 8
  store ptr %0, ptr %4, align 8, !tbaa !332
  store i64 %1, ptr %5, align 8, !tbaa !31
  %7 = load ptr, ptr %4, align 8
  call void @llvm.lifetime.start.p0(i64 8, ptr %6) #3
  %8 = getelementptr inbounds nuw %"class.__gnu_cxx::__normal_iterator.162", ptr %7, i32 0, i32 0
  %9 = load ptr, ptr %8, align 8, !tbaa !355
  %10 = load i64, ptr %5, align 8, !tbaa !31
  %11 = getelementptr inbounds i64, ptr %9, i64 %10
  store ptr %11, ptr %6, align 8, !tbaa !279
  call void @_ZN9__gnu_cxx17__normal_iteratorIPmSt6vectorImSaImEEEC2ERKS1_(ptr noundef nonnull align 8 dereferenceable(8) %3, ptr noundef nonnull align 8 dereferenceable(8) %6) #3
  call void @llvm.lifetime.end.p0(i64 8, ptr %6) #3
  %12 = getelementptr inbounds nuw %"class.__gnu_cxx::__normal_iterator.162", ptr %3, i32 0, i32 0
  %13 = load ptr, ptr %12, align 8
  ret ptr %13
}

; Function Attrs: mustprogress nounwind uwtable
define linkonce_odr hidden ptr @_ZNSt6vectorImSaImEE5beginEv(ptr noundef nonnull align 8 dereferenceable(24) %0) #5 comdat align 2 {
  %2 = alloca %"class.__gnu_cxx::__normal_iterator.162", align 8
  %3 = alloca ptr, align 8
  store ptr %0, ptr %3, align 8, !tbaa !156
  %4 = load ptr, ptr %3, align 8
  %5 = getelementptr inbounds nuw %"struct.std::_Vector_base.34", ptr %4, i32 0, i32 0
  %6 = getelementptr inbounds nuw %"struct.std::_Vector_base<unsigned long, std::allocator<unsigned long>>::_Vector_impl_data", ptr %5, i32 0, i32 0
  call void @_ZN9__gnu_cxx17__normal_iteratorIPmSt6vectorImSaImEEEC2ERKS1_(ptr noundef nonnull align 8 dereferenceable(8) %2, ptr noundef nonnull align 8 dereferenceable(8) %6) #3
  %7 = getelementptr inbounds nuw %"class.__gnu_cxx::__normal_iterator.162", ptr %2, i32 0, i32 0
  %8 = load ptr, ptr %7, align 8
  ret ptr %8
}

; Function Attrs: mustprogress uwtable
define linkonce_odr hidden noundef nonnull align 8 dereferenceable(408) ptr @_ZNK6casadi18DaeBuilderInternal8variableEm(ptr noundef nonnull align 8 dereferenceable(1017) %0, i64 noundef %1) #6 comdat align 2 {
  %3 = alloca ptr, align 8
  %4 = alloca i64, align 8
  store ptr %0, ptr %3, align 8, !tbaa !112
  store i64 %1, ptr %4, align 8, !tbaa !31
  %5 = load ptr, ptr %3, align 8
  %6 = getelementptr inbounds nuw %"class.casadi::DaeBuilderInternal", ptr %5, i32 0, i32 32
  %7 = load i64, ptr %4, align 8, !tbaa !31
  %8 = call noundef nonnull align 8 dereferenceable(8) ptr @_ZNKSt6vectorIPN6casadi8VariableESaIS2_EE2atEm(ptr noundef nonnull align 8 dereferenceable(24) %6, i64 noundef %7)
  %9 = load ptr, ptr %8, align 8, !tbaa !48
  ret ptr %9
}

; Function Attrs: mustprogress nounwind uwtable
define linkonce_odr hidden noundef nonnull align 8 dereferenceable(8) ptr @_ZNSt6vectorImSaImEEixEm(ptr noundef nonnull align 8 dereferenceable(24) %0, i64 noundef %1) #5 comdat align 2 {
  %3 = alloca ptr, align 8
  %4 = alloca i64, align 8
  store ptr %0, ptr %3, align 8, !tbaa !156
  store i64 %1, ptr %4, align 8, !tbaa !31
  %5 = load ptr, ptr %3, align 8
  %6 = getelementptr inbounds nuw %"struct.std::_Vector_base.34", ptr %5, i32 0, i32 0
  %7 = getelementptr inbounds nuw %"struct.std::_Vector_base<unsigned long, std::allocator<unsigned long>>::_Vector_impl_data", ptr %6, i32 0, i32 0
  %8 = load ptr, ptr %7, align 8, !tbaa !158
  %9 = load i64, ptr %4, align 8, !tbaa !31
  %10 = getelementptr inbounds nuw i64, ptr %8, i64 %9
  ret ptr %10
}

; Function Attrs: mustprogress nounwind uwtable
define linkonce_odr hidden noundef i64 @_ZNKSt6vectorImSaImEE4sizeEv(ptr noundef nonnull align 8 dereferenceable(24) %0) #5 comdat align 2 {
  %2 = alloca ptr, align 8
  store ptr %0, ptr %2, align 8, !tbaa !156
  %3 = load ptr, ptr %2, align 8
  %4 = getelementptr inbounds nuw %"struct.std::_Vector_base.34", ptr %3, i32 0, i32 0
  %5 = getelementptr inbounds nuw %"struct.std::_Vector_base<unsigned long, std::allocator<unsigned long>>::_Vector_impl_data", ptr %4, i32 0, i32 1
  %6 = load ptr, ptr %5, align 8, !tbaa !161
  %7 = getelementptr inbounds nuw %"struct.std::_Vector_base.34", ptr %3, i32 0, i32 0
  %8 = getelementptr inbounds nuw %"struct.std::_Vector_base<unsigned long, std::allocator<unsigned long>>::_Vector_impl_data", ptr %7, i32 0, i32 0
  %9 = load ptr, ptr %8, align 8, !tbaa !158
  %10 = ptrtoint ptr %6 to i64
  %11 = ptrtoint ptr %9 to i64
  %12 = sub i64 %10, %11
  %13 = sdiv exact i64 %12, 8
  ret i64 %13
}

; Function Attrs: mustprogress uwtable
define void @_ZNK6casadi18DaeBuilderInternal6insertERSt6vectorImSaImEEm(ptr noundef nonnull align 8 dereferenceable(1017) %0, ptr noundef nonnull align 8 dereferenceable(24) %1, i64 noundef %2) #6 align 2 {
  %4 = alloca ptr, align 8
  %5 = alloca ptr, align 8
  %6 = alloca i64, align 8
  %7 = alloca i64, align 8
  %8 = alloca i64, align 8
  %9 = alloca i32, align 4
  %10 = alloca %"class.__gnu_cxx::__normal_iterator.96", align 8
  %11 = alloca %"class.__gnu_cxx::__normal_iterator.162", align 8
  %12 = alloca %"class.__gnu_cxx::__normal_iterator.162", align 8
  %13 = alloca %"class.__gnu_cxx::__normal_iterator.162", align 8
  store ptr %0, ptr %4, align 8, !tbaa !112
  store ptr %1, ptr %5, align 8, !tbaa !156
  store i64 %2, ptr %6, align 8, !tbaa !31
  %14 = load ptr, ptr %4, align 8
  call void @llvm.lifetime.start.p0(i64 8, ptr %7) #3
  %15 = load ptr, ptr %5, align 8, !tbaa !156
  %16 = call noundef i64 @_ZNKSt6vectorImSaImEE4sizeEv(ptr noundef nonnull align 8 dereferenceable(24) %15) #3
  store i64 %16, ptr %7, align 8, !tbaa !31
  call void @llvm.lifetime.start.p0(i64 8, ptr %8) #3
  store i64 0, ptr %8, align 8, !tbaa !31
  br label %17

17:                                               ; preds = %36, %3
  %18 = load i64, ptr %8, align 8, !tbaa !31
  %19 = load ptr, ptr %5, align 8, !tbaa !156
  %20 = call noundef i64 @_ZNKSt6vectorImSaImEE4sizeEv(ptr noundef nonnull align 8 dereferenceable(24) %19) #3
  %21 = icmp ult i64 %18, %20
  br i1 %21, label %23, label %22

22:                                               ; preds = %17
  store i32 2, ptr %9, align 4
  br label %39

23:                                               ; preds = %17
  %24 = load ptr, ptr %5, align 8, !tbaa !156
  %25 = load i64, ptr %8, align 8, !tbaa !31
  %26 = call noundef nonnull align 8 dereferenceable(8) ptr @_ZNSt6vectorImSaImEEixEm(ptr noundef nonnull align 8 dereferenceable(24) %24, i64 noundef %25) #3
  %27 = load i64, ptr %26, align 8, !tbaa !31
  %28 = call noundef nonnull align 8 dereferenceable(408) ptr @_ZNK6casadi18DaeBuilderInternal8variableEm(ptr noundef nonnull align 8 dereferenceable(1017) %14, i64 noundef %27)
  %29 = getelementptr inbounds nuw %"struct.casadi::Variable", ptr %28, i32 0, i32 0
  %30 = load i64, ptr %29, align 8, !tbaa !88
  %31 = load i64, ptr %6, align 8, !tbaa !31
  %32 = icmp uge i64 %30, %31
  br i1 %32, label %33, label %35

33:                                               ; preds = %23
  %34 = load i64, ptr %8, align 8, !tbaa !31
  store i64 %34, ptr %7, align 8, !tbaa !31
  store i32 2, ptr %9, align 4
  br label %39

35:                                               ; preds = %23
  br label %36

36:                                               ; preds = %35
  %37 = load i64, ptr %8, align 8, !tbaa !31
  %38 = add i64 %37, 1
  store i64 %38, ptr %8, align 8, !tbaa !31
  br label %17, !llvm.loop !538

39:                                               ; preds = %33, %22
  call void @llvm.lifetime.end.p0(i64 8, ptr %8) #3
  br label %40

40:                                               ; preds = %39
  %41 = load ptr, ptr %5, align 8, !tbaa !156
  call void @llvm.lifetime.start.p0(i64 8, ptr %11) #3
  call void @llvm.lifetime.start.p0(i64 8, ptr %12) #3
  %42 = load ptr, ptr %5, align 8, !tbaa !156
  %43 = call ptr @_ZNSt6vectorImSaImEE5beginEv(ptr noundef nonnull align 8 dereferenceable(24) %42) #3
  %44 = getelementptr inbounds nuw %"class.__gnu_cxx::__normal_iterator.162", ptr %12, i32 0, i32 0
  store ptr %43, ptr %44, align 8
  %45 = load i64, ptr %7, align 8, !tbaa !31
  %46 = call ptr @_ZNK9__gnu_cxx17__normal_iteratorIPmSt6vectorImSaImEEEplEl(ptr noundef nonnull align 8 dereferenceable(8) %12, i64 noundef %45) #3
  %47 = getelementptr inbounds nuw %"class.__gnu_cxx::__normal_iterator.162", ptr %11, i32 0, i32 0
  store ptr %46, ptr %47, align 8
  call void @_ZN9__gnu_cxx17__normal_iteratorIPKmSt6vectorImSaImEEEC2IPmvEERKNS0_IT_S5_EE(ptr noundef nonnull align 8 dereferenceable(8) %10, ptr noundef nonnull align 8 dereferenceable(8) %11) #3
  %48 = getelementptr inbounds nuw %"class.__gnu_cxx::__normal_iterator.96", ptr %10, i32 0, i32 0
  %49 = load ptr, ptr %48, align 8
  %50 = call ptr @_ZNSt6vectorImSaImEE6insertEN9__gnu_cxx17__normal_iteratorIPKmS1_EERS4_(ptr noundef nonnull align 8 dereferenceable(24) %41, ptr %49, ptr noundef nonnull align 8 dereferenceable(8) %6)
  %51 = getelementptr inbounds nuw %"class.__gnu_cxx::__normal_iterator.162", ptr %13, i32 0, i32 0
  store ptr %50, ptr %51, align 8
  call void @llvm.lifetime.end.p0(i64 8, ptr %12) #3
  call void @llvm.lifetime.end.p0(i64 8, ptr %11) #3
  call void @llvm.lifetime.end.p0(i64 8, ptr %7) #3
  ret void
}