; Function Attrs: mustprogress uwtable
define void @_ZNK6casadi18DaeBuilderInternal6insertERSt6vectorImSaImEEm(ptr noundef nonnull readonly align 8 captures(none) dereferenceable(1017) %0, ptr noundef nonnull align 8 dereferenceable(24) %1, i64 noundef %2) local_unnamed_addr #4 align 2 {
  %4 = alloca i64, align 8
  store i64 %2, ptr %4, align 8, !tbaa !9
  %5 = getelementptr inbounds nuw i8, ptr %1, i64 8
  %6 = load ptr, ptr %5, align 8, !tbaa !326
  %7 = load ptr, ptr %1, align 8, !tbaa !202
  %8 = ptrtoint ptr %6 to i64
  %9 = ptrtoint ptr %7 to i64
  %10 = sub i64 %8, %9
  %11 = ashr exact i64 %10, 3
  %.not16 = icmp eq ptr %6, %7
  br i1 %.not16, label %_ZNK6casadi18DaeBuilderInternal8variableEm.exit._crit_edge, label %.lr.ph

.lr.ph:                                           ; preds = %3
  %12 = getelementptr inbounds nuw i8, ptr %0, i64 552
  %13 = getelementptr inbounds nuw i8, ptr %0, i64 560
  %14 = load ptr, ptr %13, align 8, !tbaa !145
  %15 = load ptr, ptr %12, align 8, !tbaa !148
  %16 = ptrtoint ptr %14 to i64
  %17 = ptrtoint ptr %15 to i64
  %18 = sub i64 %16, %17
  %19 = ashr exact i64 %18, 3
  %umax = tail call i64 @llvm.umax.i64(i64 %11, i64 1)
  br label %20

20:                                               ; preds = %.lr.ph, %27
  %.01014 = phi i64 [ 0, %.lr.ph ], [ %28, %27 ]
  %21 = getelementptr inbounds nuw i64, ptr %7, i64 %.01014
  %22 = load i64, ptr %21, align 8, !tbaa !9
  %.not.i.i.i = icmp ult i64 %22, %19
  br i1 %.not.i.i.i, label %_ZNK6casadi18DaeBuilderInternal8variableEm.exit, label %23

23:                                               ; preds = %20
  tail call void (ptr, ...) @_ZSt24__throw_out_of_range_fmtPKcz(ptr noundef nonnull @.str.690, i64 noundef %22, i64 noundef %19) #29
  unreachable

_ZNK6casadi18DaeBuilderInternal8variableEm.exit:  ; preds = %20
  %24 = getelementptr inbounds nuw ptr, ptr %15, i64 %22
  %25 = load ptr, ptr %24, align 8, !tbaa !149
  %26 = load i64, ptr %25, align 8, !tbaa !80
  %.not = icmp ult i64 %26, %2
  br i1 %.not, label %27, label %_ZNK6casadi18DaeBuilderInternal8variableEm.exit._crit_edge

27:                                               ; preds = %_ZNK6casadi18DaeBuilderInternal8variableEm.exit
  %28 = add nuw i64 %.01014, 1
  %exitcond.not = icmp eq i64 %28, %umax
  br i1 %exitcond.not, label %_ZNK6casadi18DaeBuilderInternal8variableEm.exit._crit_edge, label %20, !llvm.loop !1001

_ZNK6casadi18DaeBuilderInternal8variableEm.exit._crit_edge: ; preds = %27, %_ZNK6casadi18DaeBuilderInternal8variableEm.exit, %3
  %.0 = phi i64 [ 0, %3 ], [ %.01014, %_ZNK6casadi18DaeBuilderInternal8variableEm.exit ], [ %11, %27 ]
  %29 = getelementptr inbounds i64, ptr %7, i64 %.0
  %30 = call ptr @_ZNSt6vectorImSaImEE6insertEN9__gnu_cxx17__normal_iteratorIPKmS1_EERS4_(ptr noundef nonnull align 8 dereferenceable(24) %1, ptr %29, ptr noundef nonnull align 8 dereferenceable(8) %4)
  ret void
}